; Function Attrs: nounwind uwtable
define internal fastcc void @_terminate_job(ptr noundef %0) unnamed_addr #0 {
  %2 = alloca %struct.pmix_pointer_array_t, align 8
  %3 = alloca %struct.prte_proc_t, align 8
  call void @llvm.lifetime.start.p0(i64 160, ptr nonnull %2) #11
  call void @llvm.lifetime.start.p0(i64 752, ptr nonnull %3) #11
  %4 = load i32, ptr @pmix_class_init_epoch, align 4, !tbaa !29
  %5 = load i32, ptr getelementptr inbounds nuw (i8, ptr @pmix_pointer_array_t_class, i64 32), align 8, !tbaa !96
  %.not = icmp eq i32 %4, %5
  br i1 %.not, label %7, label %6

6:                                                ; preds = %1
  tail call void @pmix_class_initialize(ptr noundef nonnull @pmix_pointer_array_t_class) #11
  br label %7

7:                                                ; preds = %6, %1
  %8 = getelementptr inbounds nuw i8, ptr %2, i64 40
  store ptr @pmix_pointer_array_t_class, ptr %8, align 8, !tbaa !53
  %9 = getelementptr inbounds nuw i8, ptr %2, i64 48
  store i32 1, ptr %9, align 8, !tbaa !30
  %10 = getelementptr inbounds nuw i8, ptr %2, i64 56
  call void @llvm.memset.p0.i64(ptr noundef nonnull align 8 dereferenceable(64) %10, i8 0, i64 64, i1 false)
  %11 = load ptr, ptr getelementptr inbounds nuw (i8, ptr @pmix_pointer_array_t_class, i64 40), align 8, !tbaa !97
  %12 = load ptr, ptr %11, align 8, !tbaa !56
  %.not6.i = icmp eq ptr %12, null
  br i1 %.not6.i, label %pmix_obj_run_constructors.exit, label %.lr.ph.i

.lr.ph.i:                                         ; preds = %7, %.lr.ph.i
  %13 = phi ptr [ %15, %.lr.ph.i ], [ %12, %7 ]
  %.07.i = phi ptr [ %14, %.lr.ph.i ], [ %11, %7 ]
  call void %13(ptr noundef nonnull %2) #11
  %14 = getelementptr inbounds nuw i8, ptr %.07.i, i64 8
  %15 = load ptr, ptr %14, align 8, !tbaa !56
  %.not.i = icmp eq ptr %15, null
  br i1 %.not.i, label %pmix_obj_run_constructors.exit, label %.lr.ph.i, !llvm.loop !98

pmix_obj_run_constructors.exit:                   ; preds = %.lr.ph.i, %7
  %16 = call i32 @pmix_pointer_array_init(ptr noundef nonnull %2, i32 noundef 1, i32 noundef 1, i32 noundef 1) #11
  %17 = load i32, ptr @pmix_class_init_epoch, align 4, !tbaa !29
  %18 = load i32, ptr getelementptr inbounds nuw (i8, ptr @prte_proc_t_class, i64 32), align 8, !tbaa !96
  %.not1 = icmp eq i32 %17, %18
  br i1 %.not1, label %20, label %19

19:                                               ; preds = %pmix_obj_run_constructors.exit
  call void @pmix_class_initialize(ptr noundef nonnull @prte_proc_t_class) #11
  br label %20

20:                                               ; preds = %19, %pmix_obj_run_constructors.exit
  %21 = getelementptr inbounds nuw i8, ptr %3, i64 40
  store ptr @prte_proc_t_class, ptr %21, align 8, !tbaa !53
  %22 = getelementptr inbounds nuw i8, ptr %3, i64 48
  store i32 1, ptr %22, align 8, !tbaa !30
  %23 = getelementptr inbounds nuw i8, ptr %3, i64 56
  call void @llvm.memset.p0.i64(ptr noundef nonnull align 8 dereferenceable(64) %23, i8 0, i64 64, i1 false)
  %24 = load ptr, ptr getelementptr inbounds nuw (i8, ptr @prte_proc_t_class, i64 40), align 8, !tbaa !97
  %25 = load ptr, ptr %24, align 8, !tbaa !56
  %.not6.i2 = icmp eq ptr %25, null
  br i1 %.not6.i2, label %pmix_obj_run_constructors.exit6, label %.lr.ph.i3

.lr.ph.i3:                                        ; preds = %20, %.lr.ph.i3
  %26 = phi ptr [ %28, %.lr.ph.i3 ], [ %25, %20 ]
  %.07.i4 = phi ptr [ %27, %.lr.ph.i3 ], [ %24, %20 ]
  call void %26(ptr noundef nonnull %3) #11
  %27 = getelementptr inbounds nuw i8, ptr %.07.i4, i64 8
  %28 = load ptr, ptr %27, align 8, !tbaa !56
  %.not.i5 = icmp eq ptr %28, null
  br i1 %.not.i5, label %pmix_obj_run_constructors.exit6, label %.lr.ph.i3, !llvm.loop !98

pmix_obj_run_constructors.exit6:                  ; preds = %.lr.ph.i3, %20
  %29 = getelementptr inbounds nuw i8, ptr %3, i64 144
  call void @PMIx_Load_procid(ptr noundef nonnull %29, ptr noundef %0, i32 noundef -2) #11
  %30 = call i32 @pmix_pointer_array_add(ptr noundef nonnull %2, ptr noundef nonnull %3) #11
  %31 = load ptr, ptr getelementptr inbounds nuw (i8, ptr @prte_plm, i64 48), align 8, !tbaa !99
  %32 = call i32 %31(ptr noundef nonnull %2) #11
  %33 = load ptr, ptr %8, align 8, !tbaa !53
  %34 = getelementptr inbounds nuw i8, ptr %33, i64 48
  %35 = load ptr, ptr %34, align 8, !tbaa !54
  %36 = load ptr, ptr %35, align 8, !tbaa !56
  %.not6.i7 = icmp eq ptr %36, null
  br i1 %.not6.i7, label %pmix_obj_run_destructors.exit, label %.lr.ph.i8

.lr.ph.i8:                                        ; preds = %pmix_obj_run_constructors.exit6, %.lr.ph.i8
  %37 = phi ptr [ %39, %.lr.ph.i8 ], [ %36, %pmix_obj_run_constructors.exit6 ]
  %.07.i9 = phi ptr [ %38, %.lr.ph.i8 ], [ %35, %pmix_obj_run_constructors.exit6 ]
  call void %37(ptr noundef nonnull %2) #11
  %38 = getelementptr inbounds nuw i8, ptr %.07.i9, i64 8
  %39 = load ptr, ptr %38, align 8, !tbaa !56
  %.not.i10 = icmp eq ptr %39, null
  br i1 %.not.i10, label %pmix_obj_run_destructors.exit, label %.lr.ph.i8, !llvm.loop !57

pmix_obj_run_destructors.exit:                    ; preds = %.lr.ph.i8, %pmix_obj_run_constructors.exit6
  %40 = load ptr, ptr %21, align 8, !tbaa !53
  %41 = getelementptr inbounds nuw i8, ptr %40, i64 48
  %42 = load ptr, ptr %41, align 8, !tbaa !54
  %43 = load ptr, ptr %42, align 8, !tbaa !56
  %.not6.i11 = icmp eq ptr %43, null
  br i1 %.not6.i11, label %pmix_obj_run_destructors.exit15, label %.lr.ph.i12

.lr.ph.i12:                                       ; preds = %pmix_obj_run_destructors.exit, %.lr.ph.i12
  %44 = phi ptr [ %46, %.lr.ph.i12 ], [ %43, %pmix_obj_run_destructors.exit ]
  %.07.i13 = phi ptr [ %45, %.lr.ph.i12 ], [ %42, %pmix_obj_run_destructors.exit ]
  call void %44(ptr noundef nonnull %3) #11
  %45 = getelementptr inbounds nuw i8, ptr %.07.i13, i64 8
  %46 = load ptr, ptr %45, align 8, !tbaa !56
  %.not.i14 = icmp eq ptr %46, null
  br i1 %.not.i14, label %pmix_obj_run_destructors.exit15, label %.lr.ph.i12, !llvm.loop !57

pmix_obj_run_destructors.exit15:                  ; preds = %.lr.ph.i12, %pmix_obj_run_destructors.exit
  call void @llvm.lifetime.end.p0(i64 752, ptr nonnull %3) #11
  call void @llvm.lifetime.end.p0(i64 160, ptr nonnull %2) #11
  ret void
}